target datalayout = "e-m:e-p270:32:32-p271:32:32-p272:64:64-i64:64-i128:128-f80:128-n8:16:32:64-S128"
target triple = "x86_64-pc-linux-gnu"

%"class.folly::LogCategoryConfig" = type { i32, i8, i32, [4 x i8], %"class.folly::Optional" }
%"class.folly::Optional" = type { %"struct.folly::Optional<std::vector<std::__cxx11::basic_string<char>>>::StorageNonTriviallyDestructible" }
%"struct.folly::Optional<std::vector<std::__cxx11::basic_string<char>>>::StorageNonTriviallyDestructible" = type <{ %union.anon, i8, [7 x i8] }>
%union.anon = type { %"class.std::vector" }
%"class.std::vector" = type { %"struct.std::_Vector_base" }
%"struct.std::_Vector_base" = type { %"struct.std::_Vector_base<std::__cxx11::basic_string<char>, std::allocator<std::__cxx11::basic_string<char>>>::_Vector_impl" }
%"struct.std::_Vector_base<std::__cxx11::basic_string<char>, std::allocator<std::__cxx11::basic_string<char>>>::_Vector_impl" = type { %"struct.std::_Vector_base<std::__cxx11::basic_string<char>, std::allocator<std::__cxx11::basic_string<char>>>::_Vector_impl_data" }
%"struct.std::_Vector_base<std::__cxx11::basic_string<char>, std::allocator<std::__cxx11::basic_string<char>>>::_Vector_impl_data" = type { ptr, ptr, ptr }

; Function Attrs: mustprogress uwtable
define void @_ZN5folly17LogCategoryConfigC2ENS_8LogLevelEbSt6vectorINSt7__cxx1112basic_stringIcSt11char_traitsIcESaIcEEESaIS8_EE(ptr noundef nonnull align 8 dereferenceable(48) %0, i32 noundef %1, i1 noundef zeroext %2, ptr noundef %3) unnamed_addr #2 align 2 {
  %5 = alloca ptr, align 8
  %6 = alloca i32, align 4
  %7 = alloca i8, align 1
  %8 = alloca ptr, align 8
  store ptr %0, ptr %5, align 8, !tbaa !7
  store i32 %1, ptr %6, align 4, !tbaa !12
  %9 = zext i1 %2 to i8
  store i8 %9, ptr %7, align 1, !tbaa !14
  store ptr %3, ptr %8, align 8, !tbaa !29
  %10 = load ptr, ptr %5, align 8
  %11 = getelementptr inbounds nuw %"class.folly::LogCategoryConfig", ptr %10, i32 0, i32 0
  %12 = load i32, ptr %6, align 4, !tbaa !12
  store i32 %12, ptr %11, align 8, !tbaa !16
  %13 = getelementptr inbounds nuw %"class.folly::LogCategoryConfig", ptr %10, i32 0, i32 1
  %14 = load i8, ptr %7, align 1, !tbaa !14, !range !20, !noundef !21
  %15 = trunc i8 %14 to i1
  %16 = zext i1 %15 to i8
  store i8 %16, ptr %13, align 4, !tbaa !22
  %17 = getelementptr inbounds nuw %"class.folly::LogCategoryConfig", ptr %10, i32 0, i32 2
  store i32 1, ptr %17, align 8, !tbaa !23
  %18 = getelementptr inbounds nuw %"class.folly::LogCategoryConfig", ptr %10, i32 0, i32 4
  call void @_ZN5folly8OptionalISt6vectorINSt7__cxx1112basic_stringIcSt11char_traitsIcESaIcEEESaIS7_EEEC2ERKS9_(ptr noundef nonnull align 8 dereferenceable(32) %18, ptr noundef nonnull align 8 dereferenceable(24) %3)
  ret void
}