; Function Attrs: mustprogress uwtable
define void @_ZN5folly17LogCategoryConfigC2ENS_8LogLevelEbSt6vectorINSt7__cxx1112basic_stringIcSt11char_traitsIcESaIcEEESaIS8_EE(ptr noundef nonnull align 8 dereferenceable(48) initializes((0, 5), (8, 12)) %0, i32 noundef %1, i1 noundef zeroext %2, ptr noundef nonnull %3) unnamed_addr #3 align 2 {
  %5 = zext i1 %2 to i8
  store i32 %1, ptr %0, align 8, !tbaa !7
  %6 = getelementptr inbounds nuw i8, ptr %0, i64 4
  store i8 %5, ptr %6, align 4, !tbaa !15
  %7 = getelementptr inbounds nuw i8, ptr %0, i64 8
  store i32 1, ptr %7, align 8, !tbaa !16
  %8 = getelementptr inbounds nuw i8, ptr %0, i64 16
  tail call void @_ZN5folly8OptionalISt6vectorINSt7__cxx1112basic_stringIcSt11char_traitsIcESaIcEEESaIS7_EEEC2ERKS9_(ptr noundef nonnull align 8 dereferenceable(32) %8, ptr noundef nonnull align 8 dereferenceable(24) %3)
  ret void
}